; Function Attrs: mustprogress uwtable
define void @_ZN8proxygen11HeaderTable11resizeTableEj(ptr noundef nonnull align 8 dereferenceable(80) %this, i32 noundef %newLength) unnamed_addr #4 align 2 personality ptr @__gxx_personality_v0 {
entry:
  %table_ = getelementptr inbounds i8, ptr %this, i64 16
  %conv = zext i32 %newLength to i64
  %_M_finish.i.i = getelementptr inbounds i8, ptr %this, i64 24
  %0 = load ptr, ptr %_M_finish.i.i, align 8
  %1 = load ptr, ptr %table_, align 8
  %sub.ptr.lhs.cast.i.i = ptrtoint ptr %0 to i64
  %sub.ptr.rhs.cast.i.i = ptrtoint ptr %1 to i64
  %sub.ptr.sub.i.i = sub i64 %sub.ptr.lhs.cast.i.i, %sub.ptr.rhs.cast.i.i
  %sub.ptr.div.i.i = ashr exact i64 %sub.ptr.sub.i.i, 5
  %cmp.i = icmp ult i64 %sub.ptr.div.i.i, %conv
  br i1 %cmp.i, label %if.then.i, label %if.else.i

if.then.i:                                        ; preds = %entry
  %sub.i = sub nsw i64 %conv, %sub.ptr.div.i.i
  tail call void @_ZNSt6vectorIN8proxygen11HPACKHeaderESaIS1_EE17_M_default_appendEm(ptr noundef nonnull align 8 dereferenceable(24) %table_, i64 noundef %sub.i)
  br label %_ZNSt6vectorIN8proxygen11HPACKHeaderESaIS1_EE6resizeEm.exit

if.else.i:                                        ; preds = %entry
  %cmp4.i = icmp ugt i64 %sub.ptr.div.i.i, %conv
  br i1 %cmp4.i, label %if.then5.i, label %_ZNSt6vectorIN8proxygen11HPACKHeaderESaIS1_EE6resizeEm.exit

if.then5.i:                                       ; preds = %if.else.i
  %add.ptr.i = getelementptr inbounds %"class.proxygen::HPACKHeader", ptr %1, i64 %conv
  %tobool.not.i.i = icmp eq ptr %0, %add.ptr.i
  br i1 %tobool.not.i.i, label %_ZNSt6vectorIN8proxygen11HPACKHeaderESaIS1_EE6resizeEm.exit, label %for.body.i.i.i.i.i

for.body.i.i.i.i.i:                               ; preds = %if.then5.i, %for.body.i.i.i.i.i
  %__first.addr.04.i.i.i.i.i = phi ptr [ %incdec.ptr.i.i.i.i.i, %for.body.i.i.i.i.i ], [ %add.ptr.i, %if.then5.i ]
  tail call void @_ZN8proxygen11HPACKHeaderD2Ev(ptr noundef nonnull align 8 dereferenceable(32) %__first.addr.04.i.i.i.i.i) #28
  %incdec.ptr.i.i.i.i.i = getelementptr inbounds i8, ptr %__first.addr.04.i.i.i.i.i, i64 32
  %cmp.not.i.i.i.i.i = icmp eq ptr %incdec.ptr.i.i.i.i.i, %0
  br i1 %cmp.not.i.i.i.i.i, label %invoke.cont.i.i, label %for.body.i.i.i.i.i, !llvm.loop !29

invoke.cont.i.i:                                  ; preds = %for.body.i.i.i.i.i
  store ptr %add.ptr.i, ptr %_M_finish.i.i, align 8
  br label %_ZNSt6vectorIN8proxygen11HPACKHeaderESaIS1_EE6resizeEm.exit

_ZNSt6vectorIN8proxygen11HPACKHeaderESaIS1_EE6resizeEm.exit: ; preds = %if.then.i, %if.else.i, %if.then5.i, %invoke.cont.i.i
  ret void
}